; ModuleID = 'source-C-CXX/40/954.cpp'
source_filename = "source-C-CXX/40/954.cpp"
target datalayout = "e-m:e-p270:32:32-p271:32:32-p272:64:64-i64:64-f80:128-n8:16:32:64-S128"
target triple = "x86_64-pc-linux-gnu"

%"class.std::ios_base::Init" = type { i8 }
%"class.std::basic_ostream" = type { i32 (...)**, %"class.std::basic_ios" }
%"class.std::basic_ios" = type { %"class.std::ios_base", %"class.std::basic_ostream"*, i8, i8, %"class.std::basic_streambuf"*, %"class.std::ctype"*, %"class.std::num_put"*, %"class.std::num_get"* }
%"class.std::ios_base" = type { i32 (...)**, i64, i64, i32, i32, i32, %"struct.std::ios_base::_Callback_list"*, %"struct.std::ios_base::_Words", [8 x %"struct.std::ios_base::_Words"], i32, %"struct.std::ios_base::_Words"*, %"class.std::locale" }
%"struct.std::ios_base::_Callback_list" = type { %"struct.std::ios_base::_Callback_list"*, void (i32, %"class.std::ios_base"*, i32)*, i32, i32 }
%"struct.std::ios_base::_Words" = type { i8*, i64 }
%"class.std::locale" = type { %"class.std::locale::_Impl"* }
%"class.std::locale::_Impl" = type { i32, %"class.std::locale::facet"**, i64, %"class.std::locale::facet"**, i8** }
%"class.std::locale::facet" = type <{ i32 (...)**, i32, [4 x i8] }>
%"class.std::basic_streambuf" = type { i32 (...)**, i8*, i8*, i8*, i8*, i8*, i8*, %"class.std::locale" }
%"class.std::ctype" = type <{ %"class.std::locale::facet.base", [4 x i8], %struct.__locale_struct*, i8, [7 x i8], i32*, i32*, i16*, i8, [256 x i8], [256 x i8], i8, [6 x i8] }>
%"class.std::locale::facet.base" = type <{ i32 (...)**, i32 }>
%struct.__locale_struct = type { [13 x %struct.__locale_data*], i16*, i32*, i32*, [13 x i8*] }
%struct.__locale_data = type opaque
%"class.std::num_put" = type { %"class.std::locale::facet.base", [4 x i8] }
%"class.std::num_get" = type { %"class.std::locale::facet.base", [4 x i8] }

@_ZStL8__ioinit = internal global %"class.std::ios_base::Init" zeroinitializer, align 1
@__dso_handle = external hidden global i8
@_ZSt4cout = external global %"class.std::basic_ostream", align 8
@.str = private unnamed_addr constant [2 x i8] c" \00", align 1
@llvm.global_ctors = appending global [1 x { i32, void ()*, i8* }] [{ i32, void ()*, i8* } { i32 65535, void ()* @_GLOBAL__sub_I_954.cpp, i8* null }]

declare void @_ZNSt8ios_base4InitC1Ev(%"class.std::ios_base::Init"* nonnull align 1 dereferenceable(1)) unnamed_addr #0

; Function Attrs: nounwind
declare void @_ZNSt8ios_base4InitD1Ev(%"class.std::ios_base::Init"* nonnull align 1 dereferenceable(1)) unnamed_addr #1

; Function Attrs: nofree nounwind
declare i32 @__cxa_atexit(void (i8*)*, i8*, i8*) local_unnamed_addr #2

; Function Attrs: mustprogress norecurse sspstrong uwtable
define dso_local i32 @main() local_unnamed_addr #3 {
  br label %1

1:                                                ; preds = %0, %74
  %2 = phi i32 [ 1, %0 ], [ %75, %74 ]
  %3 = icmp eq i32 %2, 5
  %4 = icmp ugt i32 %2, 2
  %5 = icmp ult i32 %2, 3
  br label %6

6:                                                ; preds = %1, %71
  %7 = phi i32 [ 1, %1 ], [ %72, %71 ]
  %8 = icmp eq i32 %2, %7
  br i1 %8, label %71, label %9

9:                                                ; preds = %6
  %10 = add nuw nsw i32 %7, %2
  %11 = icmp ugt i32 %7, 1
  %12 = zext i1 %11 to i32
  br label %13

13:                                               ; preds = %9, %68
  %14 = phi i32 [ 1, %9 ], [ %69, %68 ]
  %15 = icmp eq i32 %2, %14
  %16 = icmp eq i32 %7, %14
  %17 = select i1 %15, i1 true, i1 %16
  br i1 %17, label %68, label %18

18:                                               ; preds = %13
  %19 = add nuw nsw i32 %10, %14
  %20 = icmp eq i32 %14, 1
  %21 = icmp ugt i32 %14, 2
  %22 = icmp ult i32 %14, 3
  %23 = select i1 %3, i1 %22, i1 %21
  %24 = zext i1 %23 to i32
  br label %25

25:                                               ; preds = %18, %65
  %26 = phi i32 [ 1, %18 ], [ %66, %65 ]
  %27 = icmp eq i32 %2, %26
  %28 = icmp eq i32 %7, %26
  %29 = select i1 %27, i1 true, i1 %28
  %30 = icmp eq i32 %14, %26
  %31 = select i1 %29, i1 true, i1 %30
  br i1 %31, label %65, label %32

32:                                               ; preds = %25
  %33 = add nuw nsw i32 %19, %26
  %34 = sub nsw i32 15, %33
  %35 = and i32 %33, 2147483646
  %36 = icmp eq i32 %35, 12
  br i1 %36, label %65, label %37

37:                                               ; preds = %32
  %38 = icmp eq i32 %34, 1
  %39 = icmp eq i32 %26, 1
  %40 = select i1 %38, i1 %5, i1 %4
  %41 = zext i1 %40 to i32
  %42 = add nuw nsw i32 %41, %12
  %43 = add nuw nsw i32 %42, %24
  %44 = icmp ult i32 %26, 3
  %45 = icmp ugt i32 %26, 2
  %46 = select i1 %20, i1 %45, i1 %44
  %47 = zext i1 %46 to i32
  %48 = add nuw nsw i32 %43, %47
  %49 = icmp ugt i32 %33, 12
  %50 = icmp ult i32 %33, 13
  %51 = select i1 %39, i1 %49, i1 %50
  %52 = zext i1 %51 to i32
  %53 = add nuw nsw i32 %48, %52
  %54 = icmp eq i32 %53, 5
  br i1 %54, label %55, label %65

55:                                               ; preds = %37
  %56 = tail call nonnull align 8 dereferenceable(8) %"class.std::basic_ostream"* @_ZNSolsEi(%"class.std::basic_ostream"* nonnull align 8 dereferenceable(8) @_ZSt4cout, i32 %2)
  %57 = tail call nonnull align 8 dereferenceable(8) %"class.std::basic_ostream"* @_ZSt16__ostream_insertIcSt11char_traitsIcEERSt13basic_ostreamIT_T0_ES6_PKS3_l(%"class.std::basic_ostream"* nonnull align 8 dereferenceable(8) %56, i8* nonnull getelementptr inbounds ([2 x i8], [2 x i8]* @.str, i64 0, i64 0), i64 1)
  %58 = tail call nonnull align 8 dereferenceable(8) %"class.std::basic_ostream"* @_ZNSolsEi(%"class.std::basic_ostream"* nonnull align 8 dereferenceable(8) @_ZSt4cout, i32 %7)
  %59 = tail call nonnull align 8 dereferenceable(8) %"class.std::basic_ostream"* @_ZSt16__ostream_insertIcSt11char_traitsIcEERSt13basic_ostreamIT_T0_ES6_PKS3_l(%"class.std::basic_ostream"* nonnull align 8 dereferenceable(8) %58, i8* nonnull getelementptr inbounds ([2 x i8], [2 x i8]* @.str, i64 0, i64 0), i64 1)
  %60 = tail call nonnull align 8 dereferenceable(8) %"class.std::basic_ostream"* @_ZNSolsEi(%"class.std::basic_ostream"* nonnull align 8 dereferenceable(8) @_ZSt4cout, i32 %14)
  %61 = tail call nonnull align 8 dereferenceable(8) %"class.std::basic_ostream"* @_ZSt16__ostream_insertIcSt11char_traitsIcEERSt13basic_ostreamIT_T0_ES6_PKS3_l(%"class.std::basic_ostream"* nonnull align 8 dereferenceable(8) %60, i8* nonnull getelementptr inbounds ([2 x i8], [2 x i8]* @.str, i64 0, i64 0), i64 1)
  %62 = tail call nonnull align 8 dereferenceable(8) %"class.std::basic_ostream"* @_ZNSolsEi(%"class.std::basic_ostream"* nonnull align 8 dereferenceable(8) @_ZSt4cout, i32 %26)
  %63 = tail call nonnull align 8 dereferenceable(8) %"class.std::basic_ostream"* @_ZSt16__ostream_insertIcSt11char_traitsIcEERSt13basic_ostreamIT_T0_ES6_PKS3_l(%"class.std::basic_ostream"* nonnull align 8 dereferenceable(8) %62, i8* nonnull getelementptr inbounds ([2 x i8], [2 x i8]* @.str, i64 0, i64 0), i64 1)
  %64 = tail call nonnull align 8 dereferenceable(8) %"class.std::basic_ostream"* @_ZNSolsEi(%"class.std::basic_ostream"* nonnull align 8 dereferenceable(8) @_ZSt4cout, i32 %34)
  br label %65

65:                                               ; preds = %32, %25, %55, %37
  %66 = add nuw nsw i32 %26, 1
  %67 = icmp eq i32 %66, 6
  br i1 %67, label %68, label %25, !llvm.loop !5

68:                                               ; preds = %65, %13
  %69 = add nuw nsw i32 %14, 1
  %70 = icmp eq i32 %69, 6
  br i1 %70, label %71, label %13, !llvm.loop !7

71:                                               ; preds = %68, %6
  %72 = add nuw nsw i32 %7, 1
  %73 = icmp eq i32 %72, 6
  br i1 %73, label %74, label %6, !llvm.loop !8

74:                                               ; preds = %71
  %75 = add nuw nsw i32 %2, 1
  %76 = icmp eq i32 %75, 6
  br i1 %76, label %77, label %1, !llvm.loop !9

77:                                               ; preds = %74
  ret i32 0
}

declare nonnull align 8 dereferenceable(8) %"class.std::basic_ostream"* @_ZNSolsEi(%"class.std::basic_ostream"* nonnull align 8 dereferenceable(8), i32) local_unnamed_addr #0

declare nonnull align 8 dereferenceable(8) %"class.std::basic_ostream"* @_ZSt16__ostream_insertIcSt11char_traitsIcEERSt13basic_ostreamIT_T0_ES6_PKS3_l(%"class.std::basic_ostream"* nonnull align 8 dereferenceable(8), i8*, i64) local_unnamed_addr #0

; Function Attrs: sspstrong uwtable
define internal void @_GLOBAL__sub_I_954.cpp() #4 section ".text.startup" {
  tail call void @_ZNSt8ios_base4InitC1Ev(%"class.std::ios_base::Init"* nonnull align 1 dereferenceable(1) @_ZStL8__ioinit)
  %1 = tail call i32 @__cxa_atexit(void (i8*)* bitcast (void (%"class.std::ios_base::Init"*)* @_ZNSt8ios_base4InitD1Ev to void (i8*)*), i8* getelementptr inbounds (%"class.std::ios_base::Init", %"class.std::ios_base::Init"* @_ZStL8__ioinit, i64 0, i32 0), i8* nonnull @__dso_handle) #5
  ret void
}


!llvm.module.flags = !{!0, !1, !2, !3}
!llvm.ident = !{!4}

!0 = !{i32 1, !"wchar_size", i32 4}
!1 = !{i32 7, !"PIC Level", i32 2}
!2 = !{i32 7, !"PIE Level", i32 2}
!3 = !{i32 7, !"uwtable", i32 1}
!4 = !{!"clang version 13.0.0"}
!5 = distinct !{!5, !6}
!6 = !{!"llvm.loop.mustprogress"}
!7 = distinct !{!7, !6}
!8 = distinct !{!8, !6}
!9 = distinct !{!9, !6}
